Certificate:
    Data:
        Version: 3 (0x2)
        Serial Number: 2 (0x2)
        Signature Algorithm: sha256WithRSAEncryption
        Issuer: CN=devcert
        Validity
            Not Before: Oct 26 09:26:59 2020 GMT
            Not After : Jan 29 09:26:59 2023 GMT
        Subject: CN=snowpack
        Subject Public Key Info:
            Public Key Algorithm: rsaEncryption
                RSA Public-Key: (2048 bit)
                Modulus:
                    00:e2:32:c6:de:86:1b:af:8d:ad:80:ca:7e:ad:ee:
                    2d:8c:3c:9d:02:63:ad:9b:0b:22:20:d8:11:ff:ba:
                    67:fb:3d:7f:68:5a:64:28:4c:e4:bf:b7:ec:5f:64:
                    1c:a5:7a:20:c9:20:1c:3d:47:47:bb:a5:c2:ab:f8:
                    fc:f8:48:d5:fe:db:7f:b7:53:53:3f:76:e3:12:9b:
                    05:66:be:3a:0f:68:de:6e:73:4d:51:e0:63:a7:66:
                    33:ba:02:e4:02:ef:63:21:b9:64:3d:33:56:0d:74:
                    16:7a:d9:7b:5c:c4:e0:be:e7:e0:fe:e8:2a:e2:54:
                    5e:ce:fb:75:c6:83:28:67:b2:16:7c:e0:1a:a0:43:
                    98:d1:ff:47:2f:7d:e2:0a:37:1c:3b:d8:a9:38:ae:
                    be:bf:62:12:be:49:eb:96:64:8c:99:cb:6e:91:eb:
                    5e:0c:20:b2:82:3e:01:71:7b:44:b4:4b:43:04:08:
                    d2:0c:22:f1:29:44:29:52:14:b5:28:3e:ed:08:00:
                    65:de:d2:61:f8:cf:71:aa:13:4b:f9:80:fe:86:e2:
                    3f:dd:db:d7:e0:8a:a9:d3:d3:ba:a3:6c:35:dc:d0:
                    9d:d3:92:e6:97:9c:0e:9c:e6:df:66:2d:b3:2d:4a:
                    0a:53:7b:1e:22:14:19:42:03:fc:b3:12:47:9f:e9:
                    46:1f
                Exponent: 65537 (0x10001)
        X509v3 extensions:
            X509v3 Basic Constraints: critical
                CA:FALSE
            X509v3 Subject Key Identifier: 
                1D:B1:C1:D8:8F:D0:2C:B6:9D:4D:F4:3C:FB:AC:1E:93:EA:85:02:BF
            X509v3 Authority Key Identifier: 
                keyid:8A:79:E2:BB:19:33:9F:C0:D7:49:F3:3C:12:93:51:D9:80:13:0F:2C
                DirName:/CN=devcert
                serial:77:17:7E:68:29:17:24:68:02:4A:E4:B7:0D:03:79:22:03:DA:D9:B0

            X509v3 Key Usage: critical
                Digital Signature, Key Encipherment
            X509v3 Extended Key Usage: 
                TLS Web Server Authentication
            X509v3 Subject Alternative Name: 
                DNS:snowpack, DNS:*.snowpack
    Signature Algorithm: sha256WithRSAEncryption
         92:d4:0e:1c:37:b2:d7:5e:be:56:08:80:97:1c:15:14:45:59:
         4c:a7:e4:b5:26:73:7f:01:ca:d3:4e:0c:34:f0:4f:da:b9:38:
         54:ca:7f:f1:9f:24:1d:3a:74:b6:48:76:64:93:c5:66:84:50:
         5c:67:01:91:ea:43:86:bf:23:86:27:02:85:c5:bc:29:ce:20:
         34:13:b1:37:32:b0:b8:43:7c:4d:7e:81:cd:b1:ab:c5:71:b0:
         94:4d:d8:ca:be:b9:8e:3e:2c:c9:3e:9c:4d:91:4d:06:7d:2d:
         c3:6a:2e:45:7c:ae:f1:9e:2e:60:e5:c1:e9:e9:77:60:17:43:
         67:db:0f:55:35:e8:2b:49:98:bf:24:1b:d6:30:58:19:70:93:
         aa:bd:47:23:66:f1:8d:cf:e3:90:3f:ac:9f:19:06:45:25:b3:
         bc:e6:e3:7f:b5:42:90:a9:3d:3c:0c:f3:a1:57:ff:aa:bb:23:
         a3:b2:73:d0:b3:f2:a5:c5:f0:b8:c6:54:37:53:23:b6:a5:69:
         f6:ab:b8:6b:fa:7d:ae:ef:44:0b:81:18:88:ff:ac:b5:14:89:
         75:8c:68:d0:d8:fa:8c:e0:f2:12:1c:d7:0c:d0:a9:c6:c2:d4:
         1b:8e:b2:4b:c6:44:95:18:ac:32:ec:29:59:ca:4b:58:fb:49:
         41:f8:60:77
-----BEGIN CERTIFICATE-----
MIIDZjCCAk6gAwIBAgIBAjANBgkqhkiG9w0BAQsFADASMRAwDgYDVQQDDAdkZXZj
ZXJ0MB4XDTIwMTAyNjA5MjY1OVoXDTIzMDEyOTA5MjY1OVowEzERMA8GA1UEAwwI
c25vd3BhY2swggEiMA0GCSqGSIb3DQEBAQUAA4IBDwAwggEKAoIBAQDiMsbehhuv
ja2Ayn6t7i2MPJ0CY62bCyIg2BH/umf7PX9oWmQoTOS/t+xfZByleiDJIBw9R0e7
pcKr+Pz4SNX+23+3U1M/duMSmwVmvjoPaN5uc01R4GOnZjO6AuQC72MhuWQ9M1YN
dBZ62XtcxOC+5+D+6CriVF7O+3XGgyhnshZ84BqgQ5jR/0cvfeIKNxw72Kk4rr6/
YhK+SeuWZIyZy26R614MILKCPgFxe0S0S0MECNIMIvEpRClSFLUoPu0IAGXe0mH4
z3GqE0v5gP6G4j/d29fgiqnT07qjbDXc0J3TkuaXnA6c5t9mLbMtSgpTex4iFBlC
A/yzEkef6UYfAgMBAAGjgcUwgcIwDAYDVR0TAQH/BAIwADAdBgNVHQ4EFgQUHbHB
2I/QLLadTfQ8+6wek+qFAr8wTQYDVR0jBEYwRIAUinniuxkzn8DXSfM8EpNR2YAT
DyyhFqQUMBIxEDAOBgNVBAMMB2RldmNlcnSCFHcXfmgpFyRoAkrktw0DeSID2tmw
MA4GA1UdDwEB/wQEAwIFoDATBgNVHSUEDDAKBggrBgEFBQcDATAfBgNVHREEGDAW
gghzbm93cGFja4IKKi5zbm93cGFjazANBgkqhkiG9w0BAQsFAAOCAQEAktQOHDey
116+VgiAlxwVFEVZTKfktSZzfwHK004MNPBP2rk4VMp/8Z8kHTp0tkh2ZJPFZoRQ
XGcBkepDhr8jhicChcW8Kc4gNBOxNzKwuEN8TX6BzbGrxXGwlE3Yyr65jj4syT6c
TZFNBn0tw2ouRXyu8Z4uYOXB6el3YBdDZ9sPVTXoK0mYvyQb1jBYGXCTqr1HI2bx
jc/jkD+snxkGRSWzvObjf7VCkKk9PAzzoVf/qrsjo7Jz0LPypcXwuMZUN1MjtqVp
9qu4a/p9ru9EC4EYiP+stRSJdYxo0Nj6jODyEhzXDNCpxsLUG46yS8ZElRisMuwp
WcpLWPtJQfhgdw==
-----END CERTIFICATE-----
